target datalayout = "e-m:e-p270:32:32-p271:32:32-p272:64:64-i64:64-i128:128-f80:128-n8:16:32:64-S128"
target triple = "x86_64-pc-linux-gnu"

%struct.Abc_Frame_t_ = type { ptr, ptr, ptr, ptr, ptr, ptr, ptr, ptr, ptr, ptr, i32, i32, i32, i32, i32, ptr, float, float, i32, i32, ptr, ptr, ptr, double, double, ptr, ptr, ptr, ptr, ptr, ptr, ptr, ptr, ptr, ptr, ptr, ptr, float, ptr, i32, ptr, ptr, ptr, ptr, ptr, i32, i32, i32, i32, i32, i32, ptr, ptr, ptr, ptr, ptr, ptr, i32, i32, ptr, ptr, ptr, ptr, ptr, ptr, ptr, ptr, ptr, ptr, ptr, ptr, ptr, ptr, ptr, ptr, ptr, ptr, ptr, ptr, ptr, ptr, ptr, ptr, ptr, ptr, ptr, ptr, ptr, ptr }

@globalUtilOptind = external global i32, align 4
@.str.61 = private unnamed_addr constant [3 x i8] c"hs\00", align 1
@.str.62 = private unnamed_addr constant [19 x i8] c"usage: quit [-sh]\0A\00", align 1
@.str.63 = private unnamed_addr constant [32 x i8] c"   -h  print the command usage\0A\00", align 1
@.str.64 = private unnamed_addr constant [45 x i8] c"   -s  frees all the memory before quitting\0A\00", align 1

; Function Attrs: nounwind uwtable
define internal i32 @CmdCommandQuit(ptr noundef %0, i32 noundef %1, ptr noundef %2) #0 {
  %4 = alloca i32, align 4
  %5 = alloca ptr, align 8
  %6 = alloca i32, align 4
  %7 = alloca ptr, align 8
  %8 = alloca i32, align 4
  store ptr %0, ptr %5, align 8
  store i32 %1, ptr %6, align 4
  store ptr %2, ptr %7, align 8
  call void (...) @Extra_UtilGetoptReset()
  br label %9

9:                                                ; preds = %3
  %10 = load i32, ptr %6, align 4
  %11 = load ptr, ptr %7, align 8
  %12 = call i32 @Extra_UtilGetopt(i32 noundef %10, ptr noundef %11, ptr noundef @.str.61)
  store i32 %12, ptr %8, align 4
  %13 = icmp ne i32 %12, -1
  br i1 %13, label %14, label %19

14:                                               ; preds = %9
  %15 = load i32, ptr %8, align 4
  switch i32 %15, label %18 [
    i32 104, label %16
    i32 115, label %17
  ]

16:                                               ; preds = %14
  br label %25

17:                                               ; preds = %14
  store i32 -2, ptr %4, align 4
  br label %38

18:                                               ; preds = %14
  br label %25

19:                                               ; preds = %9
  %20 = load i32, ptr %6, align 4
  %21 = load i32, ptr @globalUtilOptind, align 4
  %22 = icmp ne i32 %20, %21
  br i1 %22, label %23, label %24

23:                                               ; preds = %19
  br label %25

24:                                               ; preds = %19
  store i32 -1, ptr %4, align 4
  br label %38

25:                                               ; preds = %23, %18, %16
  %26 = load ptr, ptr %5, align 8
  %27 = getelementptr inbounds %struct.Abc_Frame_t_, ptr %26, i32 0, i32 21
  %28 = load ptr, ptr %27, align 8
  %29 = call i32 (ptr, ptr, ...) @fprintf(ptr noundef %28, ptr noundef @.str.62) #9
  %30 = load ptr, ptr %5, align 8
  %31 = getelementptr inbounds %struct.Abc_Frame_t_, ptr %30, i32 0, i32 21
  %32 = load ptr, ptr %31, align 8
  %33 = call i32 (ptr, ptr, ...) @fprintf(ptr noundef %32, ptr noundef @.str.63) #9
  %34 = load ptr, ptr %5, align 8
  %35 = getelementptr inbounds %struct.Abc_Frame_t_, ptr %34, i32 0, i32 21
  %36 = load ptr, ptr %35, align 8
  %37 = call i32 (ptr, ptr, ...) @fprintf(ptr noundef %36, ptr noundef @.str.64) #9
  store i32 1, ptr %4, align 4
  br label %38

38:                                               ; preds = %25, %24, %17
  %39 = load i32, ptr %4, align 4
  ret i32 %39
}