; Function Attrs: nounwind uwtable
define internal range(i32 -2, 2) i32 @CmdCommandQuit(ptr noundef readonly captures(none) %0, i32 noundef %1, ptr noundef %2) #0 {
  tail call void (...) @Extra_UtilGetoptReset() #17
  %4 = tail call i32 @Extra_UtilGetopt(i32 noundef %1, ptr noundef %2, ptr noundef nonnull @.str.61) #17
  switch i32 %4, label %7 [
    i32 -1, label %5
    i32 115, label %15
  ]

5:                                                ; preds = %3
  %6 = load i32, ptr @globalUtilOptind, align 4
  %.not8 = icmp eq i32 %1, %6
  br i1 %.not8, label %15, label %7

7:                                                ; preds = %3, %5
  %8 = getelementptr inbounds nuw i8, ptr %0, i64 136
  %9 = load ptr, ptr %8, align 8
  %10 = tail call i64 @fwrite(ptr nonnull @.str.62, i64 18, i64 1, ptr %9)
  %11 = load ptr, ptr %8, align 8
  %12 = tail call i64 @fwrite(ptr nonnull @.str.63, i64 31, i64 1, ptr %11)
  %13 = load ptr, ptr %8, align 8
  %14 = tail call i64 @fwrite(ptr nonnull @.str.64, i64 44, i64 1, ptr %13)
  br label %15

15:                                               ; preds = %5, %3, %7
  %.0 = phi i32 [ 1, %7 ], [ -2, %3 ], [ -1, %5 ]
  ret i32 %.0
}